; Function Attrs: nounwind uwtable
define internal i32 @cr_exp100_read(ptr noundef %0, ptr noundef readonly captures(none) %1, ptr noundef %2, i64 noundef %3, ptr noundef %4, ptr noundef %5) #0 {
  %7 = getelementptr inbounds nuw i8, ptr %1, i64 16
  %8 = load ptr, ptr %7, align 8, !tbaa !185
  %9 = getelementptr inbounds nuw i8, ptr %8, i64 48
  %10 = load i32, ptr %9, align 8, !tbaa !188
  switch i32 %10, label %62 [
    i32 2, label %11
    i32 3, label %25
    i32 1, label %26
  ]

11:                                               ; preds = %6
  %12 = tail call zeroext i1 @Curl_req_sendbuf_empty(ptr noundef %0) #11
  br i1 %12, label %14, label %13

13:                                               ; preds = %11
  store i64 0, ptr %4, align 8, !tbaa !114
  store i8 0, ptr %5, align 1, !tbaa !79
  br label %66

14:                                               ; preds = %11
  store i32 1, ptr %9, align 8, !tbaa !188
  %15 = getelementptr inbounds nuw i8, ptr %8, i64 32
  %16 = tail call { i64, i32 } @Curl_now() #11
  %17 = extractvalue { i64, i32 } %16, 0
  %18 = extractvalue { i64, i32 } %16, 1
  store i64 %17, ptr %15, align 8, !tbaa !114
  %.sroa.4.0..sroa_idx = getelementptr inbounds nuw i8, ptr %8, i64 40
  store i32 %18, ptr %.sroa.4.0..sroa_idx, align 8, !tbaa !113
  %19 = getelementptr inbounds nuw i8, ptr %0, i64 2456
  %20 = load i64, ptr %19, align 8, !tbaa !250
  tail call void @Curl_expire(ptr noundef %0, i64 noundef %20, i32 noundef 0) #11
  %21 = getelementptr inbounds nuw i8, ptr %0, i64 312
  %22 = load i32, ptr %21, align 8, !tbaa !218
  %23 = and i32 %22, -67
  %24 = or disjoint i32 %23, 64
  store i32 %24, ptr %21, align 8, !tbaa !218
  store i64 0, ptr %4, align 8, !tbaa !114
  store i8 0, ptr %5, align 1, !tbaa !79
  br label %66

25:                                               ; preds = %6
  store i64 0, ptr %4, align 8, !tbaa !114
  store i8 0, ptr %5, align 1, !tbaa !79
  br label %66

26:                                               ; preds = %6
  %27 = tail call { i64, i32 } @Curl_now() #11
  %28 = extractvalue { i64, i32 } %27, 0
  %29 = extractvalue { i64, i32 } %27, 1
  %30 = getelementptr inbounds nuw i8, ptr %8, i64 32
  %31 = load i64, ptr %30, align 8
  %32 = getelementptr inbounds nuw i8, ptr %8, i64 40
  %33 = load i32, ptr %32, align 8
  %34 = tail call i64 @Curl_timediff(i64 %28, i32 %29, i64 %31, i32 %33) #11
  %35 = getelementptr inbounds nuw i8, ptr %0, i64 2456
  %36 = load i64, ptr %35, align 8, !tbaa !250
  %37 = icmp slt i64 %34, %36
  br i1 %37, label %38, label %43

38:                                               ; preds = %26
  %39 = getelementptr inbounds nuw i8, ptr %0, i64 312
  %40 = load i32, ptr %39, align 8, !tbaa !218
  %41 = and i32 %40, -67
  %42 = or disjoint i32 %41, 64
  store i32 %42, ptr %39, align 8, !tbaa !218
  store i64 0, ptr %4, align 8, !tbaa !114
  store i8 0, ptr %5, align 1, !tbaa !79
  br label %66

43:                                               ; preds = %26
  %.val = load ptr, ptr %7, align 8, !tbaa !185
  %44 = getelementptr inbounds nuw i8, ptr %.val, i64 48
  %45 = load i32, ptr %44, align 8, !tbaa !188
  %.not.i = icmp eq i32 %45, 0
  br i1 %.not.i, label %http_exp100_continue.exit, label %46

46:                                               ; preds = %43
  store i32 0, ptr %44, align 8, !tbaa !188
  %47 = getelementptr inbounds nuw i8, ptr %0, i64 312
  %48 = load i32, ptr %47, align 8, !tbaa !218
  %49 = and i32 %48, -67
  %50 = or disjoint i32 %49, 2
  store i32 %50, ptr %47, align 8, !tbaa !218
  tail call void @Curl_expire_done(ptr noundef nonnull %0, i32 noundef 0) #11
  br label %http_exp100_continue.exit

http_exp100_continue.exit:                        ; preds = %46, %43
  %51 = getelementptr inbounds nuw i8, ptr %0, i64 2562
  %52 = load i64, ptr %51, align 2
  %53 = and i64 %52, 134217728
  %.not38 = icmp eq i64 %53, 0
  br i1 %.not38, label %62, label %54

54:                                               ; preds = %http_exp100_continue.exit
  %55 = getelementptr inbounds nuw i8, ptr %0, i64 4712
  %56 = load ptr, ptr %55, align 8, !tbaa !128
  %.not39 = icmp eq ptr %56, null
  br i1 %.not39, label %61, label %57

57:                                               ; preds = %54
  %58 = getelementptr inbounds nuw i8, ptr %56, i64 8
  %59 = load i32, ptr %58, align 8, !tbaa !129
  %60 = icmp sgt i32 %59, 0
  br i1 %60, label %61, label %62

61:                                               ; preds = %57, %54
  tail call void (ptr, ptr, ...) @Curl_infof(ptr noundef nonnull %0, ptr noundef nonnull @.str.165) #11
  br label %62

62:                                               ; preds = %6, %61, %57, %http_exp100_continue.exit
  %63 = getelementptr inbounds nuw i8, ptr %1, i64 8
  %64 = load ptr, ptr %63, align 8, !tbaa !251
  %65 = tail call i32 @Curl_creader_read(ptr noundef %0, ptr noundef %64, ptr noundef %2, i64 noundef %3, ptr noundef %4, ptr noundef %5) #11
  br label %66

66:                                               ; preds = %62, %38, %25, %14, %13
  %.0 = phi i32 [ %65, %62 ], [ 0, %38 ], [ 26, %25 ], [ 0, %14 ], [ 0, %13 ]
  ret i32 %.0
}